target datalayout = "e-m:e-p270:32:32-p271:32:32-p272:64:64-i64:64-i128:128-f80:128-n8:16:32:64-S128"
target triple = "x86_64-pc-linux-gnu"

%struct.AVCodecContext = type { ptr, i32, i32, ptr, i32, i32, ptr, ptr, ptr, i64, i32, i32, ptr, i32, %struct.AVRational, %struct.AVRational, %struct.AVRational, i32, i32, i32, i32, i32, %struct.AVRational, i32, i32, i32, i32, i32, i32, i32, i32, i32, i32, i32, ptr, ptr, i32, float, float, float, float, float, float, float, float, float, i32, i32, i32, i32, i32, i32, i32, i32, i32, i32, i32, i32, ptr, ptr, ptr, i32, i32, i32, i32, i32, i32, i32, i32, i32, i32, %struct.AVChannelLayout, i32, i32, i32, i32, i32, i32, i32, i32, ptr, i32, i32, i32, float, float, i32, i32, i32, i32, i32, ptr, i64, i64, float, float, i32, i32, ptr, ptr, i32, i32, i32, i32, i32, ptr, ptr, ptr, ptr, i32, i32, [8 x i64], i32, i32, i32, i32, i32, i32, i32, ptr, ptr, i32, i32, i32, i32, i32, i32, i32, i32, i32, i32, ptr, ptr, i32, i32, ptr, ptr, ptr, ptr, i32, i32, i64, i32, i32, i64, ptr, i64, ptr, i32, ptr, i32 }
%struct.AVRational = type { i32, i32 }
%struct.AVChannelLayout = type { i32, i32, %union.anon, ptr }
%union.anon = type { i64 }
%struct.VC1Context = type { %struct.MpegEncContext, %struct.IntraX8Context, %struct.H264ChromaContext, %struct.VC1DSPContext, i32, i32, i32, i32, i32, i32, i32, i32, i32, i32, i32, i32, i32, i32, i32, i32, i32, i32, i32, i32, i32, i32, i32, i32, i32, i32, i32, i32, i32, i32, i32, i32, i32, i32, i32, i32, i8, i8, i32, i32, i32, i32, i8, i8, [4 x [64 x i8]], i32, i32, ptr, ptr, i8, i8, i8, i8, i32, i32, i32, i32, i32, i32, i8, ptr, ptr, i32, i32, i32, i32, i32, ptr, [3 x ptr], i8, i8, i16, i8, i8, i32, i8, i8, ptr, i32, i32, ptr, ptr, ptr, i32, i32, i32, i32, [2 x [256 x i8]], [2 x [256 x i8]], [2 x [256 x i8]], [2 x [256 x i8]], [2 x [256 x i8]], [2 x [256 x i8]], ptr, ptr, i32, ptr, i32, i32, i32, i32, i32, i32, i8, i8, i32, i8, i8, i8, i8, i8, i8, i8, i32, i8, i8, ptr, i32, ptr, i32, i8, i8, i8, i8, i8, i8, i32, i32, i8, i8, ptr, ptr, ptr, ptr, i8, i8, ptr, i32, [64 x i8], ptr, ptr, ptr, [2 x ptr], ptr, [2 x ptr], i32, i32, i32, i32, i32, i32, i32, i32, [2 x i32], i32, i32, i32, i32, i32, i32, i32, i32, i32, i32, i32, i32, i32, i32, ptr, i32, i32, i32, i32, [2 x [2 x ptr]], i32, i32, i32, ptr, i32, i32, i32, i32, i32, ptr, ptr, ptr, ptr, ptr, ptr, i8, i8, i8, i32, i32, i32 }
%struct.MpegEncContext = type { ptr, i32, i32, i32, [12 x i32], i32, %struct.ScanTable, %struct.ScanTable, [64 x i8], [64 x i8], ptr, ptr, i32, i32, i32, i32, i32, i32, i32, i32, i32, i32, i32, i32, i32, i32, i32, i32, i32, i32, i32, i32, i64, i64, ptr, %struct.BufferPoolContext, i32, i32, %union.anon.0, i32, %struct.MPVWorkPicture, %struct.MPVWorkPicture, %struct.MPVWorkPicture, i32, [3 x i32], ptr, [3 x ptr], ptr, ptr, ptr, ptr, ptr, ptr, [3 x ptr], i32, ptr, ptr, ptr, ptr, %struct.ScratchpadContext, i32, i32, i32, i32, i32, i32, %struct.BlockDSPContext, %struct.H264ChromaContext, %struct.HpelDSPContext, %struct.IDCTDSPContext, %struct.QpelDSPContext, %struct.VideoDSPContext, %struct.H263DSPContext, ptr, [2 x [2 x ptr]], i32, i32, [2 x [4 x [2 x i32]]], [2 x [2 x i32]], [2 x [2 x [2 x i32]]], [2 x [64 x i16]], i32, i32, i32, i32, i32, [6 x i32], [6 x i32], [3 x ptr], ptr, [64 x i16], [64 x i16], [64 x i16], [64 x i16], i32, i32, %struct.GetBitContext, i32, i32, i32, i32, i32, i32, i32, i32, i32, i32, i32, i32, i32, i32, i32, i64, i64, i16, i16, i16, i16, i32, i32, i32, i32, i32, i32, i32, i32, i32, [3 x i32], i32, i32, i32, i32, i32, i32, %struct.GetBitContext, i32, [2 x [2 x i32]], i32, i32, i32, i32, i32, i32, i32, i32, i32, i32, i32, i32, i32, i32, [2 x i32], i32, i32, ptr, ptr, ptr, ptr, ptr, i32, i32, %struct.ERContext }
%struct.ScanTable = type { ptr, [64 x i8], [64 x i8] }
%struct.BufferPoolContext = type { ptr, ptr, ptr, ptr, ptr, i32, i32, i32 }
%union.anon.0 = type { [32 x ptr] }
%struct.MPVWorkPicture = type { [3 x ptr], [3 x i64], ptr, ptr, [2 x ptr], ptr, ptr, [2 x ptr], i32 }
%struct.ScratchpadContext = type { ptr, ptr, %union.anon.1, i32 }
%union.anon.1 = type { ptr }
%struct.BlockDSPContext = type { ptr, ptr, [2 x ptr] }
%struct.HpelDSPContext = type { [4 x [4 x ptr]], [4 x [4 x ptr]], [4 x [4 x ptr]], [4 x ptr] }
%struct.IDCTDSPContext = type { ptr, ptr, ptr, ptr, ptr, ptr, [64 x i8], i32, i32 }
%struct.QpelDSPContext = type { [2 x [16 x ptr]], [2 x [16 x ptr]], [2 x [16 x ptr]] }
%struct.VideoDSPContext = type { ptr, ptr }
%struct.H263DSPContext = type { ptr, ptr }
%struct.GetBitContext = type { ptr, ptr, i32, i32, i32 }
%struct.ERContext = type { ptr, ptr, i32, ptr, i32, i32, i32, i64, i64, i32, i32, ptr, ptr, [3 x ptr], ptr, ptr, [2 x [4 x [2 x i32]]], %struct.ERPicture, %struct.ERPicture, %struct.ERPicture, [2 x ptr], [2 x ptr], i16, i16, i32, i32, ptr, ptr }
%struct.ERPicture = type { ptr, ptr, ptr, [2 x ptr], [2 x ptr], ptr, i32 }
%struct.IntraX8Context = type { [4 x ptr], ptr, [3 x ptr], i32, ptr, [3 x [64 x i8]], %struct.WMV2DSPContext, [64 x i8], ptr, ptr, %struct.IntraX8DSPContext, %struct.BlockDSPContext, i32, i32, i32, i32, ptr, ptr, i32, i32, i32, [3 x ptr], [42 x i8], i32, i32, i32, i32, i32, i32, i32, i32, i32, i32, i32 }
%struct.WMV2DSPContext = type { ptr, ptr, [8 x ptr], i32 }
%struct.IntraX8DSPContext = type { ptr, ptr, [12 x ptr], ptr }
%struct.H264ChromaContext = type { [4 x ptr], [4 x ptr] }
%struct.VC1DSPContext = type { ptr, ptr, ptr, ptr, ptr, ptr, ptr, ptr, ptr, ptr, ptr, ptr, ptr, ptr, ptr, ptr, ptr, ptr, [2 x [16 x ptr]], [2 x [16 x ptr]], [3 x ptr], [3 x ptr], ptr, ptr, ptr, ptr, ptr, ptr, ptr }

; Function Attrs: nounwind uwtable
define internal void @vc1_sprite_flush(ptr noundef %0) #3 {
  %2 = alloca ptr, align 8
  %3 = alloca ptr, align 8
  %4 = alloca ptr, align 8
  %5 = alloca ptr, align 8
  %6 = alloca i32, align 4
  %7 = alloca i32, align 4
  store ptr %0, ptr %2, align 8, !tbaa !4
  call void @llvm.lifetime.start.p0(i64 8, ptr %3) #11
  %8 = load ptr, ptr %2, align 8, !tbaa !4
  %9 = getelementptr inbounds nuw %struct.AVCodecContext, ptr %8, i32 0, i32 6
  %10 = load ptr, ptr %9, align 8, !tbaa !9
  store ptr %10, ptr %3, align 8, !tbaa !29
  call void @llvm.lifetime.start.p0(i64 8, ptr %4) #11
  %11 = load ptr, ptr %3, align 8, !tbaa !29
  %12 = getelementptr inbounds nuw %struct.VC1Context, ptr %11, i32 0, i32 0
  store ptr %12, ptr %4, align 8, !tbaa !31
  call void @llvm.lifetime.start.p0(i64 8, ptr %5) #11
  %13 = load ptr, ptr %4, align 8, !tbaa !31
  %14 = getelementptr inbounds nuw %struct.MpegEncContext, ptr %13, i32 0, i32 42
  store ptr %14, ptr %5, align 8, !tbaa !231
  call void @llvm.lifetime.start.p0(i64 4, ptr %6) #11
  call void @llvm.lifetime.start.p0(i64 4, ptr %7) #11
  %15 = load ptr, ptr %5, align 8, !tbaa !231
  %16 = getelementptr inbounds nuw %struct.MPVWorkPicture, ptr %15, i32 0, i32 0
  %17 = getelementptr inbounds [3 x ptr], ptr %16, i64 0, i64 0
  %18 = load ptr, ptr %17, align 8, !tbaa !87
  %19 = icmp ne ptr %18, null
  br i1 %19, label %20, label %72

20:                                               ; preds = %1
  store i32 0, ptr %6, align 4, !tbaa !35
  br label %21

21:                                               ; preds = %68, %20
  %22 = load i32, ptr %6, align 4, !tbaa !35
  %23 = icmp slt i32 %22, 3
  br i1 %23, label %24, label %71

24:                                               ; preds = %21
  store i32 0, ptr %7, align 4, !tbaa !35
  br label %25

25:                                               ; preds = %64, %24
  %26 = load i32, ptr %7, align 4, !tbaa !35
  %27 = load ptr, ptr %3, align 8, !tbaa !29
  %28 = getelementptr inbounds nuw %struct.VC1Context, ptr %27, i32 0, i32 176
  %29 = load i32, ptr %28, align 4, !tbaa !143
  %30 = load i32, ptr %6, align 4, !tbaa !35
  %31 = icmp ne i32 %30, 0
  %32 = xor i1 %31, true
  %33 = xor i1 %32, true
  %34 = zext i1 %33 to i32
  %35 = ashr i32 %29, %34
  %36 = icmp slt i32 %26, %35
  br i1 %36, label %37, label %67

37:                                               ; preds = %25
  %38 = load ptr, ptr %5, align 8, !tbaa !231
  %39 = getelementptr inbounds nuw %struct.MPVWorkPicture, ptr %38, i32 0, i32 0
  %40 = load i32, ptr %6, align 4, !tbaa !35
  %41 = sext i32 %40 to i64
  %42 = getelementptr inbounds [3 x ptr], ptr %39, i64 0, i64 %41
  %43 = load ptr, ptr %42, align 8, !tbaa !87
  %44 = load i32, ptr %7, align 4, !tbaa !35
  %45 = sext i32 %44 to i64
  %46 = load ptr, ptr %5, align 8, !tbaa !231
  %47 = getelementptr inbounds nuw %struct.MPVWorkPicture, ptr %46, i32 0, i32 1
  %48 = load i32, ptr %6, align 4, !tbaa !35
  %49 = sext i32 %48 to i64
  %50 = getelementptr inbounds [3 x i64], ptr %47, i64 0, i64 %49
  %51 = load i64, ptr %50, align 8, !tbaa !159
  %52 = mul nsw i64 %45, %51
  %53 = getelementptr inbounds i8, ptr %43, i64 %52
  %54 = load i32, ptr %6, align 4, !tbaa !35
  %55 = icmp ne i32 %54, 0
  %56 = select i1 %55, i32 128, i32 0
  %57 = trunc i32 %56 to i8
  %58 = load ptr, ptr %5, align 8, !tbaa !231
  %59 = getelementptr inbounds nuw %struct.MPVWorkPicture, ptr %58, i32 0, i32 1
  %60 = load i32, ptr %6, align 4, !tbaa !35
  %61 = sext i32 %60 to i64
  %62 = getelementptr inbounds [3 x i64], ptr %59, i64 0, i64 %61
  %63 = load i64, ptr %62, align 8, !tbaa !159
  call void @llvm.memset.p0.i64(ptr align 1 %53, i8 %57, i64 %63, i1 false)
  br label %64

64:                                               ; preds = %37
  %65 = load i32, ptr %7, align 4, !tbaa !35
  %66 = add nsw i32 %65, 1
  store i32 %66, ptr %7, align 4, !tbaa !35
  br label %25, !llvm.loop !233

67:                                               ; preds = %25
  br label %68

68:                                               ; preds = %67
  %69 = load i32, ptr %6, align 4, !tbaa !35
  %70 = add nsw i32 %69, 1
  store i32 %70, ptr %6, align 4, !tbaa !35
  br label %21, !llvm.loop !234

71:                                               ; preds = %21
  br label %72

72:                                               ; preds = %71, %1
  call void @llvm.lifetime.end.p0(i64 4, ptr %7) #11
  call void @llvm.lifetime.end.p0(i64 4, ptr %6) #11
  call void @llvm.lifetime.end.p0(i64 8, ptr %5) #11
  call void @llvm.lifetime.end.p0(i64 8, ptr %4) #11
  call void @llvm.lifetime.end.p0(i64 8, ptr %3) #11
  ret void
}