; Function Attrs: nofree norecurse nosync nounwind memory(readwrite, inaccessiblemem: none) uwtable
define internal void @vc1_sprite_flush(ptr noundef readonly captures(none) %0) #5 {
  %2 = getelementptr inbounds nuw i8, ptr %0, i64 32
  %3 = load ptr, ptr %2, align 8, !tbaa !4
  %4 = getelementptr inbounds nuw i8, ptr %3, i64 1160
  %5 = load ptr, ptr %4, align 8, !tbaa !81
  %.not = icmp eq ptr %5, null
  br i1 %.not, label %.loopexit, label %.preheader18

.preheader18:                                     ; preds = %1
  %6 = getelementptr inbounds nuw i8, ptr %3, i64 10508
  %7 = getelementptr inbounds nuw i8, ptr %3, i64 1184
  %.pre = load i32, ptr %6, align 4, !tbaa !143
  br label %.preheader

.preheader:                                       ; preds = %.preheader18, %._crit_edge
  %8 = phi i32 [ %.pre, %.preheader18 ], [ %25, %._crit_edge ]
  %indvars.iv22 = phi i64 [ 0, %.preheader18 ], [ %indvars.iv.next23, %._crit_edge ]
  %9 = icmp ne i64 %indvars.iv22, 0
  %10 = zext i1 %9 to i32
  %11 = ashr i32 %8, %10
  %12 = icmp sgt i32 %11, 0
  br i1 %12, label %.lr.ph, label %._crit_edge

.lr.ph:                                           ; preds = %.preheader
  %13 = getelementptr inbounds nuw [3 x ptr], ptr %4, i64 0, i64 %indvars.iv22
  %14 = getelementptr inbounds nuw [3 x i64], ptr %7, i64 0, i64 %indvars.iv22
  %15 = select i1 %9, i8 -128, i8 0
  br label %16

16:                                               ; preds = %.lr.ph, %16
  %indvars.iv = phi i64 [ 0, %.lr.ph ], [ %indvars.iv.next, %16 ]
  %17 = load ptr, ptr %13, align 8, !tbaa !81
  %18 = load i64, ptr %14, align 8, !tbaa !154
  %19 = mul nsw i64 %18, %indvars.iv
  %20 = getelementptr inbounds i8, ptr %17, i64 %19
  tail call void @llvm.memset.p0.i64(ptr align 1 %20, i8 %15, i64 %18, i1 false)
  %indvars.iv.next = add nuw nsw i64 %indvars.iv, 1
  %21 = load i32, ptr %6, align 4, !tbaa !143
  %22 = ashr i32 %21, %10
  %23 = sext i32 %22 to i64
  %24 = icmp slt i64 %indvars.iv.next, %23
  br i1 %24, label %16, label %._crit_edge, !llvm.loop !224

._crit_edge:                                      ; preds = %16, %.preheader
  %25 = phi i32 [ %8, %.preheader ], [ %21, %16 ]
  %indvars.iv.next23 = add nuw nsw i64 %indvars.iv22, 1
  %exitcond.not = icmp eq i64 %indvars.iv.next23, 3
  br i1 %exitcond.not, label %.loopexit, label %.preheader, !llvm.loop !225

.loopexit:                                        ; preds = %._crit_edge, %1
  ret void
}